; Function Attrs: mustprogress nounwind uwtable
define hidden void @_ZN9XUnmapperC2EP14XPageAllocator(ptr noundef nonnull align 8 dereferenceable(1050) %0, ptr noundef %1) unnamed_addr #0 align 2 {
  tail call void @_ZN18ConcurrentGCThreadC2Ev(ptr noundef nonnull align 8 dereferenceable(918) %0) #9
  store ptr getelementptr inbounds inrange(-16, 240) (i8, ptr @_ZTV9XUnmapper, i64 16), ptr %0, align 8
  %3 = getelementptr inbounds i8, ptr %0, i64 920
  store ptr %1, ptr %3, align 8
  %4 = getelementptr inbounds i8, ptr %0, i64 928
  tail call void @llvm.memset.p0.i64(ptr noundef nonnull align 8 dereferenceable(88) %4, i8 0, i64 88, i1 false)
  tail call void @_ZN15PlatformMonitorC1Ev(ptr noundef nonnull align 8 dereferenceable(88) %4) #9
  %5 = getelementptr inbounds i8, ptr %0, i64 1016
  store ptr %5, ptr %5, align 8
  %6 = getelementptr inbounds i8, ptr %0, i64 1024
  store ptr %5, ptr %6, align 8
  %7 = getelementptr inbounds i8, ptr %0, i64 1032
  tail call void @llvm.memset.p0.i64(ptr noundef nonnull align 8 dereferenceable(18) %7, i8 0, i64 18, i1 false)
  tail call void (ptr, ptr, ...) @_ZN11NamedThread8set_nameEPKcz(ptr noundef nonnull align 8 dereferenceable(916) %0, ptr noundef nonnull @.str) #9
  tail call void @_ZN18ConcurrentGCThread16create_and_startE14ThreadPriority(ptr noundef nonnull align 8 dereferenceable(918) %0, i32 noundef 9) #9
  ret void
}